target datalayout = "e-m:e-p270:32:32-p271:32:32-p272:64:64-i64:64-i128:128-f80:128-n8:16:32:64-S128"
target triple = "x86_64-pc-linux-gnu"

%"class.cvc5::internal::RealAlgebraicNumber" = type { %"class.cvc5::internal::Rational" }
%"class.cvc5::internal::Rational" = type { %class.__gmp_expr }
%class.__gmp_expr = type { [1 x %struct.__mpq_struct] }
%struct.__mpq_struct = type { %struct.__mpz_struct, %struct.__mpz_struct }
%struct.__mpz_struct = type { i32, i32, ptr }

@_ZN4cvc58internal19RealAlgebraicNumberC1ERKNS0_8RationalE = hidden unnamed_addr alias void (ptr, ptr), ptr @_ZN4cvc58internal19RealAlgebraicNumberC2ERKNS0_8RationalE

; Function Attrs: mustprogress nounwind uwtable
define linkonce_odr hidden void @_ZN10__gmp_exprIA1_12__mpq_structS1_ED2Ev(ptr noundef nonnull align 8 dereferenceable(32) %0) unnamed_addr #5 comdat align 2 personality ptr @__gxx_personality_v0 {
  %2 = alloca ptr, align 8
  store ptr %0, ptr %2, align 8, !tbaa !37
  %3 = load ptr, ptr %2, align 8
  %4 = getelementptr inbounds nuw %class.__gmp_expr, ptr %3, i32 0, i32 0
  %5 = getelementptr inbounds [1 x %struct.__mpq_struct], ptr %4, i64 0, i64 0
  invoke void @__gmpq_clear(ptr noundef %5)
          to label %6 unwind label %7

6:                                                ; preds = %1
  ret void

7:                                                ; preds = %1
  %8 = landingpad { ptr, i32 }
          catch ptr null
  %9 = extractvalue { ptr, i32 } %8, 0
  call void @__clang_call_terminate(ptr %9) #17
  unreachable
}

; Function Attrs: mustprogress nounwind uwtable
define linkonce_odr hidden void @_ZN4cvc58internal8RationalD2Ev(ptr noundef nonnull align 8 dereferenceable(32) %0) unnamed_addr #5 comdat align 2 {
  %2 = alloca ptr, align 8
  store ptr %0, ptr %2, align 8, !tbaa !8
  %3 = load ptr, ptr %2, align 8
  %4 = getelementptr inbounds nuw %"class.cvc5::internal::Rational", ptr %3, i32 0, i32 0
  call void @_ZN10__gmp_exprIA1_12__mpq_structS1_ED2Ev(ptr noundef nonnull align 8 dereferenceable(32) %4) #16
  ret void
}

; Function Attrs: mustprogress nounwind uwtable
define linkonce_odr hidden noundef nonnull align 8 dereferenceable(32) ptr @_ZNK4cvc58internal19RealAlgebraicNumber16getRationalValueEv(ptr noundef nonnull align 8 dereferenceable(32) %0) #5 comdat align 2 {
  %2 = alloca ptr, align 8
  store ptr %0, ptr %2, align 8, !tbaa !3
  %3 = load ptr, ptr %2, align 8
  %4 = getelementptr inbounds nuw %"class.cvc5::internal::RealAlgebraicNumber", ptr %3, i32 0, i32 0
  ret ptr %4
}

; Function Attrs: mustprogress uwtable
define hidden void @_ZNK4cvc58internal19RealAlgebraicNumberngEv(ptr dead_on_unwind noalias writable sret(%"class.cvc5::internal::RealAlgebraicNumber") align 8 %0, ptr noundef nonnull align 8 dereferenceable(32) %1) #0 align 2 personality ptr @__gxx_personality_v0 {
  %3 = alloca ptr, align 8
  %4 = alloca ptr, align 8
  %5 = alloca %"class.cvc5::internal::Rational", align 8
  %6 = alloca ptr, align 8
  %7 = alloca i32, align 4
  store ptr %0, ptr %3, align 8
  store ptr %1, ptr %4, align 8, !tbaa !3
  %8 = load ptr, ptr %4, align 8
  call void @llvm.lifetime.start.p0(i64 32, ptr %5) #16
  %9 = call noundef nonnull align 8 dereferenceable(32) ptr @_ZNK4cvc58internal19RealAlgebraicNumber16getRationalValueEv(ptr noundef nonnull align 8 dereferenceable(32) %8)
  call void @_ZNK4cvc58internal8RationalngEv(ptr dead_on_unwind writable sret(%"class.cvc5::internal::Rational") align 8 %5, ptr noundef nonnull align 8 dereferenceable(32) %9)
  invoke void @_ZN4cvc58internal19RealAlgebraicNumberC1ERKNS0_8RationalE(ptr noundef nonnull align 8 dereferenceable(32) %0, ptr noundef nonnull align 8 dereferenceable(32) %5)
          to label %10 unwind label %11

10:                                               ; preds = %2
  call void @_ZN4cvc58internal8RationalD2Ev(ptr noundef nonnull align 8 dereferenceable(32) %5) #16
  call void @llvm.lifetime.end.p0(i64 32, ptr %5) #16
  ret void

11:                                               ; preds = %2
  %12 = landingpad { ptr, i32 }
          cleanup
  %13 = extractvalue { ptr, i32 } %12, 0
  store ptr %13, ptr %6, align 8
  %14 = extractvalue { ptr, i32 } %12, 1
  store i32 %14, ptr %7, align 4
  call void @_ZN4cvc58internal8RationalD2Ev(ptr noundef nonnull align 8 dereferenceable(32) %5) #16
  call void @llvm.lifetime.end.p0(i64 32, ptr %5) #16
  br label %15

15:                                               ; preds = %11
  %16 = load ptr, ptr %6, align 8
  %17 = load i32, ptr %7, align 4
  %18 = insertvalue { ptr, i32 } poison, ptr %16, 0
  %19 = insertvalue { ptr, i32 } %18, i32 %17, 1
  resume { ptr, i32 } %19
}