; Function Attrs: mustprogress uwtable
define hidden void @_ZNK4cvc58internal19RealAlgebraicNumberngEv(ptr dead_on_unwind noalias writable sret(%"class.cvc5::internal::RealAlgebraicNumber") align 8 %0, ptr noundef nonnull align 8 dereferenceable(32) %1) local_unnamed_addr #0 align 2 personality ptr @__gxx_personality_v0 {
  %3 = alloca %"class.cvc5::internal::Rational", align 8
  call void @llvm.lifetime.start.p0(i64 32, ptr nonnull %3) #20
  call void @_ZNK4cvc58internal8RationalngEv(ptr dead_on_unwind nonnull writable sret(%"class.cvc5::internal::Rational") align 8 %3, ptr noundef nonnull align 8 dereferenceable(32) %1)
  invoke void @__gmpz_init_set(ptr noundef nonnull align 8 dereferenceable(32) %0, ptr noundef nonnull align 8 dereferenceable(32) %3)
          to label %.noexc unwind label %14

.noexc:                                           ; preds = %2
  %4 = getelementptr inbounds nuw i8, ptr %0, i64 16
  %5 = getelementptr inbounds nuw i8, ptr %3, i64 16
  invoke void @__gmpz_init_set(ptr noundef nonnull %4, ptr noundef nonnull %5)
          to label %.noexc2 unwind label %14

.noexc2:                                          ; preds = %.noexc
  invoke void @__gmpq_canonicalize(ptr noundef nonnull align 8 dereferenceable(32) %0)
          to label %_ZN4cvc58internal19RealAlgebraicNumberC2ERKNS0_8RationalE.exit unwind label %6

6:                                                ; preds = %.noexc2
  %7 = landingpad { ptr, i32 }
          cleanup
  invoke void @__gmpq_clear(ptr noundef nonnull align 8 dereferenceable(32) %0)
          to label %.body unwind label %8

8:                                                ; preds = %6
  %9 = landingpad { ptr, i32 }
          catch ptr null
  %10 = extractvalue { ptr, i32 } %9, 0
  call void @__clang_call_terminate(ptr %10) #19
  unreachable

_ZN4cvc58internal19RealAlgebraicNumberC2ERKNS0_8RationalE.exit: ; preds = %.noexc2
  invoke void @__gmpq_clear(ptr noundef nonnull align 8 dereferenceable(32) %3)
          to label %_ZN4cvc58internal8RationalD2Ev.exit unwind label %11

11:                                               ; preds = %_ZN4cvc58internal19RealAlgebraicNumberC2ERKNS0_8RationalE.exit
  %12 = landingpad { ptr, i32 }
          catch ptr null
  %13 = extractvalue { ptr, i32 } %12, 0
  call void @__clang_call_terminate(ptr %13) #19
  unreachable

_ZN4cvc58internal8RationalD2Ev.exit:              ; preds = %_ZN4cvc58internal19RealAlgebraicNumberC2ERKNS0_8RationalE.exit
  call void @llvm.lifetime.end.p0(i64 32, ptr nonnull %3) #20
  ret void

14:                                               ; preds = %.noexc, %2
  %15 = landingpad { ptr, i32 }
          cleanup
  br label %.body

.body:                                            ; preds = %6, %14
  %eh.lpad-body = phi { ptr, i32 } [ %15, %14 ], [ %7, %6 ]
  invoke void @__gmpq_clear(ptr noundef nonnull align 8 dereferenceable(32) %3)
          to label %_ZN4cvc58internal8RationalD2Ev.exit3 unwind label %16

16:                                               ; preds = %.body
  %17 = landingpad { ptr, i32 }
          catch ptr null
  %18 = extractvalue { ptr, i32 } %17, 0
  call void @__clang_call_terminate(ptr %18) #19
  unreachable

_ZN4cvc58internal8RationalD2Ev.exit3:             ; preds = %.body
  call void @llvm.lifetime.end.p0(i64 32, ptr nonnull %3) #20
  resume { ptr, i32 } %eh.lpad-body
}